Certificate:
    Data:
        Version: 3 (0x2)
        Serial Number: 2 (0x2)
        Signature Algorithm: sha1WithRSAEncryption
        Issuer: C=US, ST=CA, L=SanFrancisco, O=Fort-Funston, CN=Fort-Funston CA/emailAddress=me@myhost.mydomain
        Validity
            Not Before: Dec 21 13:31:05 2018 GMT
            Not After : Dec 18 13:31:05 2028 GMT
        Subject: C=US, ST=CA, L=SanFrancisco, O=Fort-Funston, CN=client1/emailAddress=me@myhost.mydomain
        Subject Public Key Info:
            Public Key Algorithm: rsaEncryption
            RSA Public Key: (1024 bit)
                Modulus (1024 bit):
                    00:c6:80:15:fa:c0:f0:db:2e:ea:36:fe:05:a3:bf:
                    4c:1e:d6:f6:64:27:16:08:91:7b:a4:89:5d:af:8a:
                    77:4e:ae:f1:4c:c6:fe:09:74:55:09:e7:96:8d:23:
                    c2:21:33:aa:2d:13:71:66:7a:ae:f0:6d:13:12:c4:
                    4a:8a:12:12:15:fa:59:03:f0:20:c9:a1:03:87:54:
                    ee:59:a6:d6:87:e7:f8:6f:56:ab:3d:22:8d:8d:08:
                    24:bf:e8:02:89:ad:49:aa:a9:f6:25:4d:ae:fa:12:
                    bf:8b:49:0a:7c:6e:f1:51:f6:24:44:2e:8a:ff:3e:
                    29:aa:2b:b8:5d:33:d7:da:ed
                Exponent: 65537 (0x10001)
        X509v3 extensions:
            X509v3 Basic Constraints: 
                CA:FALSE
            Netscape Comment: 
                Easy-RSA Generated Certificate
            X509v3 Subject Key Identifier: 
                30:D6:77:6D:9F:37:DF:0D:22:76:F6:68:F2:75:B6:AB:4A:83:E3:65
            X509v3 Authority Key Identifier: 
                keyid:29:2B:A1:E3:05:EE:75:12:B8:58:CD:49:B2:D3:FE:BB:29:70:8D:EF
                DirName:/C=US/ST=CA/L=SanFrancisco/O=Fort-Funston/CN=Fort-Funston CA/emailAddress=me@myhost.mydomain
                serial:FE:AE:E0:54:B9:F7:A3:BC

            X509v3 Extended Key Usage: 
                TLS Web Client Authentication
            X509v3 Key Usage: 
                Digital Signature
    Signature Algorithm: sha1WithRSAEncryption
        6f:0b:77:c6:28:0e:a1:10:d8:22:e6:65:b8:cd:fe:18:5d:9e:
        fd:dd:d7:3b:c4:c4:fd:5d:a9:d7:68:2a:41:6c:f8:8b:f5:60:
        03:f6:5d:43:d8:1b:7c:33:e3:f8:75:5c:f3:b3:de:ed:75:f0:
        8c:e3:7e:be:1b:f2:7d:00:ea:df:14:de:1a:cb:8c:aa:07:4a:
        aa:b9:7b:45:66:c4:a5:88:54:58:84:84:01:c5:18:bd:bf:ed:
        a8:de:52:05:71:45:ee:7f:aa:90:cd:96:6a:7c:8a:7d:c8:30:
        88:e4:bc:bb:c8:bb:2b:9f:33:fd:20:09:fe:5e:e9:f2:61:37:
        48:79
-----BEGIN CERTIFICATE-----
MIIDtzCCAyCgAwIBAgIBAjANBgkqhkiG9w0BAQUFADCBhTELMAkGA1UEBhMCVVMx
CzAJBgNVBAgTAkNBMRUwEwYDVQQHEwxTYW5GcmFuY2lzY28xFTATBgNVBAoTDEZv
cnQtRnVuc3RvbjEYMBYGA1UEAxMPRm9ydC1GdW5zdG9uIENBMSEwHwYJKoZIhvcN
AQkBFhJtZUBteWhvc3QubXlkb21haW4wHhcNMTgxMjIxMTMzMTA1WhcNMjgxMjE4
MTMzMTA1WjB9MQswCQYDVQQGEwJVUzELMAkGA1UECBMCQ0ExFTATBgNVBAcTDFNh
bkZyYW5jaXNjbzEVMBMGA1UEChMMRm9ydC1GdW5zdG9uMRAwDgYDVQQDEwdjbGll
bnQxMSEwHwYJKoZIhvcNAQkBFhJtZUBteWhvc3QubXlkb21haW4wgZ8wDQYJKoZI
hvcNAQEBBQADgY0AMIGJAoGBAMaAFfrA8Nsu6jb+BaO/TB7W9mQnFgiRe6SJXa+K
d06u8UzG/gl0VQnnlo0jwiEzqi0TcWZ6rvBtExLESooSEhX6WQPwIMmhA4dU7lmm
1ofn+G9Wqz0ijY0IJL/oAomtSaqp9iVNrvoSv4tJCnxu8VH2JEQuiv8+KaoruF0z
19rtAgMBAAGjggE8MIIBODAJBgNVHRMEAjAAMC0GCWCGSAGG+EIBDQQgFh5FYXN5
LVJTQSBHZW5lcmF0ZWQgQ2VydGlmaWNhdGUwHQYDVR0OBBYEFDDWd22fN98NInb2
aPJ1tqtKg+NlMIG6BgNVHSMEgbIwga+AFCkroeMF7nUSuFjNSbLT/rspcI3voYGL
pIGIMIGFMQswCQYDVQQGEwJVUzELMAkGA1UECBMCQ0ExFTATBgNVBAcTDFNhbkZy
YW5jaXNjbzEVMBMGA1UEChMMRm9ydC1GdW5zdG9uMRgwFgYDVQQDEw9Gb3J0LUZ1
bnN0b24gQ0ExITAfBgkqhkiG9w0BCQEWEm1lQG15aG9zdC5teWRvbWFpboIJAP6u
4FS596O8MBMGA1UdJQQMMAoGCCsGAQUFBwMCMAsGA1UdDwQEAwIHgDANBgkqhkiG
9w0BAQUFAAOBgQBvC3fGKA6hENgi5mW4zf4YXZ793dc7xMT9XanXaCpBbPiL9WAD
9l1D2Bt8M+P4dVzzs97tdfCM436+G/J9AOrfFN4ay4yqB0qquXtFZsSliFRYhIQB
xRi9v+2o3lIFcUXuf6qQzZZqfIp9yDCI5Ly7yLsrnzP9IAn+XunyYTdIeQ==
-----END CERTIFICATE-----
